Certificate:
    Data:
        Version: 3 (0x2)
        Serial Number: 1 (0x1)
        Signature Algorithm: sha256WithRSAEncryption
        Issuer: O=ICANN, OU=ICANN Certification Authority, CN=ICANN Root CA, C=US
        Validity
            Not Before: Dec 23 04:19:12 2009 GMT
            Not After : Dec 18 04:19:12 2029 GMT
        Subject: O=ICANN, OU=ICANN Certification Authority, CN=ICANN Root CA, C=US
        Subject Public Key Info:
            Public Key Algorithm: rsaEncryption
            RSA Public Key: (2048 bit)
                Modulus (2048 bit):
                    00:a0:db:70:b8:4f:34:da:9c:d4:d0:7e:bb:ea:15:
                    bc:e9:c9:11:2a:1f:61:2f:6a:b9:bd:3f:3d:76:a0:
                    9a:0a:f7:ee:93:6e:6e:55:53:84:8c:f2:2c:f1:82:
                    27:c8:0f:9a:cf:52:1b:54:da:28:d2:2c:30:8e:dd:
                    fb:92:20:33:2d:d6:c8:f1:0e:10:21:88:71:fa:84:
                    22:4b:5d:47:56:16:7c:9b:9f:5d:c3:11:79:9c:14:
                    e2:ff:c0:74:ac:dd:39:d7:e0:38:d8:b0:73:aa:fb:
                    d1:db:84:af:52:22:a8:f6:d5:9b:94:f4:e6:5d:5e:
                    e8:3f:87:90:0b:c7:1a:77:f5:2e:d3:8f:1a:ce:02:
                    1d:07:69:21:47:32:da:46:ae:00:4c:b6:a5:a2:9c:
                    39:c1:c0:4a:f6:d3:1c:ae:d3:6d:bb:c7:18:f0:7e:
                    ed:f6:80:ce:d0:01:2e:89:de:12:ba:ee:11:cb:a6:
                    7a:d7:0d:7c:f3:08:8d:72:9d:bf:55:75:13:70:bb:
                    31:22:4a:cb:e8:c0:aa:a4:09:aa:36:68:40:60:74:
                    9d:e7:19:81:43:22:52:fe:c9:2b:52:0f:41:13:36:
                    09:72:65:95:cc:89:ae:6f:56:17:16:34:73:52:a3:
                    04:ed:bd:88:82:8a:eb:d7:dc:82:52:9c:06:e1:52:
                    85:41
                Exponent: 65537 (0x10001)
        X509v3 extensions:
            X509v3 Basic Constraints: critical
                CA:TRUE
            X509v3 Key Usage: critical
                Digital Signature, Non Repudiation, Key Encipherment, Data Encipherment, Key Agreement, Certificate Sign, CRL Sign
            X509v3 Subject Key Identifier: 
                BA:52:E9:49:83:24:86:52:2F:C7:99:CD:FC:8D:6B:69:08:4D:C0:50
    Signature Algorithm: sha256WithRSAEncryption
        0f:f1:e9:82:a2:0a:87:9f:2d:94:60:5a:b2:c0:4b:a1:2f:2b:
        3b:47:d5:0a:99:86:38:b2:ec:c6:3b:89:e4:6e:07:cf:14:c7:
        c7:e8:cf:99:8f:aa:30:c3:19:70:b9:e6:6d:d6:3f:c8:68:26:
        b2:a0:a5:37:42:ca:d8:62:80:d1:a2:5a:48:2e:1f:85:3f:0c:
        7b:c2:c7:94:11:5f:19:2a:95:ac:a0:3a:03:d8:91:5b:2e:0d:
        9c:7c:1f:2e:fc:e9:44:e1:16:26:73:1c:45:4a:65:c1:83:4c:
        90:f3:f2:28:42:df:db:c4:e7:04:12:18:62:43:5e:bc:1f:6c:
        84:e6:bc:49:32:df:61:d7:99:ee:e4:90:52:7b:0a:c2:91:8a:
        98:62:66:b1:c8:e0:b7:5a:b5:46:7c:76:71:54:8e:cc:a4:81:
        5c:19:db:d2:6f:66:b5:bb:2b:ae:6b:c9:74:04:a8:24:de:e8:
        c5:d3:fc:2c:1c:d7:8f:db:6a:8d:c9:53:be:5d:50:73:ac:cf:
        1f:93:c0:52:50:5b:a2:4f:fe:ad:65:36:17:46:d1:2d:e5:a2:
        90:66:05:db:29:4e:5d:50:5d:e3:4f:da:a0:8f:f0:6b:e4:16:
        70:dd:7f:f3:77:7d:b9:4e:f9:ec:c3:33:02:d7:e9:63:2f:31:
        e7:40:61:a4
-----BEGIN CERTIFICATE-----
MIIDdzCCAl+gAwIBAgIBATANBgkqhkiG9w0BAQsFADBdMQ4wDAYDVQQKEwVJQ0FO
TjEmMCQGA1UECxMdSUNBTk4gQ2VydGlmaWNhdGlvbiBBdXRob3JpdHkxFjAUBgNV
BAMTDUlDQU5OIFJvb3QgQ0ExCzAJBgNVBAYTAlVTMB4XDTA5MTIyMzA0MTkxMloX
DTI5MTIxODA0MTkxMlowXTEOMAwGA1UEChMFSUNBTk4xJjAkBgNVBAsTHUlDQU5O
IENlcnRpZmljYXRpb24gQXV0aG9yaXR5MRYwFAYDVQQDEw1JQ0FOTiBSb290IENB
MQswCQYDVQQGEwJVUzCCASIwDQYJKoZIhvcNAQEBBQADggEPADCCAQoCggEBAKDb
cLhPNNqc1NB+u+oVvOnJESofYS9qub0/PXagmgr37pNublVThIzyLPGCJ8gPms9S
G1TaKNIsMI7d+5IgMy3WyPEOECGIcfqEIktdR1YWfJufXcMReZwU4v/AdKzdOdfg
ONiwc6r70duEr1IiqPbVm5T05l1e6D+HkAvHGnf1LtOPGs4CHQdpIUcy2kauAEy2
paKcOcHASvbTHK7TbbvHGPB+7faAztABLoneErruEcumetcNfPMIjXKdv1V1E3C7
MSJKy+jAqqQJqjZoQGB0necZgUMiUv7JK1IPQRM2CXJllcyJrm9WFxY0c1KjBO29
iIKK69fcglKcBuFShUECAwEAAaNCMEAwDwYDVR0TAQH/BAUwAwEB/zAOBgNVHQ8B
Af8EBAMCAf4wHQYDVR0OBBYEFLpS6UmDJIZSL8eZzfyNa2kITcBQMA0GCSqGSIb3
DQEBCwUAA4IBAQAP8emCogqHny2UYFqywEuhLys7R9UKmYY4suzGO4nkbgfPFMfH
6M+Zj6owwxlwueZt1j/IaCayoKU3QsrYYoDRolpILh+FPwx7wseUEV8ZKpWsoDoD
2JFbLg2cfB8u/OlE4RYmcxxFSmXBg0yQ8/IoQt/bxOcEEhhiQ168H2yE5rxJMt9h
15nu5JBSewrCkYqYYmaxyOC3WrVGfHZxVI7MpIFcGdvSb2a1uyuua8l0BKgk3ujF
0/wsHNeP22qNyVO+XVBzrM8fk8BSUFuiT/6tZTYXRtEt5aKQZgXbKU5dUF3jT9qg
j/Br5BZw3X/zd325TvnswzMC1+ljLzHnQGGk
-----END CERTIFICATE-----
Certificate:
    Data:
        Version: 3 (0x2)
        Serial Number: 9 (0x9)
        Signature Algorithm: sha256WithRSAEncryption
        Issuer: O=ICANN, OU=ICANN Certification Authority, CN=ICANN Root CA, C=US
        Validity
            Not Before: Jun 11 18:41:21 2014 GMT
            Not After : Jun 10 18:41:21 2019 GMT
        Subject: O=ICANN, CN=ICANN DNSSEC CA/emailAddress=dnssec@icann.org
        Subject Public Key Info:
            Public Key Algorithm: rsaEncryption
            RSA Public Key: (2048 bit)
                Modulus (2048 bit):
                    00:c0:bf:e2:b4:ee:12:46:36:3b:7c:d2:46:21:64:
                    5a:93:e1:e3:02:10:25:bb:a5:30:70:19:89:98:7e:
                    9e:db:8e:0f:ac:c8:48:66:0e:1a:f8:81:e5:2d:3c:
                    7b:39:39:76:28:8f:ee:0a:a7:dd:64:e9:5f:87:25:
                    b1:64:e5:59:03:fc:bc:29:3b:63:37:c8:d7:46:9a:
                    b6:ce:87:55:cd:cf:e2:ab:e9:c7:8a:53:2e:25:87:
                    b0:98:d6:20:a3:a8:ec:87:b0:39:a3:c4:c5:75:59:
                    3c:fb:91:03:fa:ee:7f:e9:2b:b6:70:88:69:2c:e6:
                    f1:4f:fc:d0:47:b4:e9:a0:2c:fa:0c:c3:84:eb:be:
                    73:5a:bc:16:ed:d0:83:02:2d:eb:6a:21:02:51:70:
                    29:1e:4f:c9:69:03:9f:91:32:5c:2c:1a:9f:5e:45:
                    48:2a:50:ee:72:14:ec:17:29:fc:20:95:7d:22:6a:
                    c6:6f:83:a2:58:8e:b1:64:c8:73:23:54:6c:69:1d:
                    66:1f:df:f8:4f:24:a1:a8:ae:00:7f:e9:89:41:a6:
                    e3:88:1d:3a:e1:b3:3a:ef:29:45:32:9b:94:2e:b7:
                    6c:1e:fe:31:40:13:e1:bd:52:67:d0:d8:c3:3e:03:
                    84:48:72:9d:bd:8a:48:a0:f2:72:35:b6:03:4b:c6:
                    e9:05
                Exponent: 65537 (0x10001)
        X509v3 extensions:
            X509v3 Basic Constraints: critical
                CA:TRUE
            X509v3 Key Usage: critical
                Certificate Sign, CRL Sign
            X509v3 Authority Key Identifier: 
                keyid:BA:52:E9:49:83:24:86:52:2F:C7:99:CD:FC:8D:6B:69:08:4D:C0:50

            X509v3 Subject Key Identifier: 
                8F:B2:42:69:C3:9D:E4:3C:FA:13:B9:FF:F2:C0:A4:EF:D8:0F:E8:22
    Signature Algorithm: sha256WithRSAEncryption
        47:75:12:ff:99:c1:95:a7:41:71:d2:bd:08:98:d4:55:28:f8:
        52:78:9e:d9:88:bf:f8:0d:fd:ba:7d:bb:55:19:f1:17:39:26:
        99:a5:ee:0b:b2:26:a3:b7:31:f6:56:48:ec:53:17:b1:32:ab:
        32:2d:a5:e7:15:1d:03:d1:66:ec:8d:8c:2a:3f:74:bd:b2:0e:
        9b:73:43:93:ed:c5:d4:eb:1f:33:23:a7:ef:fa:8e:27:35:8f:
        58:1d:6b:b1:fe:85:42:c6:ac:66:87:3b:d1:58:f5:95:ef:d3:
        f9:4a:65:e6:27:aa:d6:4f:22:5e:7f:6f:dd:ae:33:63:b5:8d:
        cf:d0:18:8c:ad:16:dc:63:ba:c8:49:f9:ea:fc:3d:02:64:b9:
        9d:d8:3c:19:43:21:5e:92:6a:cf:08:e9:00:eb:75:ac:d8:c2:
        43:70:9d:9b:6c:50:7b:3e:72:ba:56:b7:32:3e:67:9e:7d:39:
        f6:a6:8f:a8:49:a0:a7:6f:cf:66:74:b1:59:08:07:bf:5a:19:
        f5:e5:88:e8:51:7c:33:45:79:5a:ad:b5:08:15:33:61:e8:56:
        fd:03:04:48:02:8b:fb:bf:07:59:71:ad:81:05:7c:16:7a:7e:
        00:30:a0:c9:fd:44:f4:f7:1e:05:d1:da:4f:14:6f:a7:bd:ab:
        99:57:d6:5d
-----BEGIN CERTIFICATE-----
MIIDhjCCAm6gAwIBAgIBCTANBgkqhkiG9w0BAQsFADBdMQ4wDAYDVQQKEwVJQ0FO
TjEmMCQGA1UECxMdSUNBTk4gQ2VydGlmaWNhdGlvbiBBdXRob3JpdHkxFjAUBgNV
BAMTDUlDQU5OIFJvb3QgQ0ExCzAJBgNVBAYTAlVTMB4XDTE0MDYxMTE4NDEyMVoX
DTE5MDYxMDE4NDEyMVowSzEOMAwGA1UEChMFSUNBTk4xGDAWBgNVBAMTD0lDQU5O
IEROU1NFQyBDQTEfMB0GCSqGSIb3DQEJARMQZG5zc2VjQGljYW5uLm9yZzCCASIw
DQYJKoZIhvcNAQEBBQADggEPADCCAQoCggEBAMC/4rTuEkY2O3zSRiFkWpPh4wIQ
JbulMHAZiZh+ntuOD6zISGYOGviB5S08ezk5diiP7gqn3WTpX4clsWTlWQP8vCk7
YzfI10aats6HVc3P4qvpx4pTLiWHsJjWIKOo7IewOaPExXVZPPuRA/ruf+krtnCI
aSzm8U/80Ee06aAs+gzDhOu+c1q8Fu3QgwIt62ohAlFwKR5PyWkDn5EyXCwan15F
SCpQ7nIU7Bcp/CCVfSJqxm+DoliOsWTIcyNUbGkdZh/f+E8koaiuAH/piUGm44gd
OuGzOu8pRTKblC63bB7+MUAT4b1SZ9DYwz4DhEhynb2KSKDycjW2A0vG6QUCAwEA
AaNjMGEwDwYDVR0TAQH/BAUwAwEB/zAOBgNVHQ8BAf8EBAMCAQYwHwYDVR0jBBgw
FoAUulLpSYMkhlIvx5nN/I1raQhNwFAwHQYDVR0OBBYEFI+yQmnDneQ8+hO5//LA
pO/YD+giMA0GCSqGSIb3DQEBCwUAA4IBAQBHdRL/mcGVp0Fx0r0ImNRVKPhSeJ7Z
iL/4Df26fbtVGfEXOSaZpe4LsiajtzH2VkjsUxexMqsyLaXnFR0D0WbsjYwqP3S9
sg6bc0OT7cXU6x8zI6fv+o4nNY9YHWux/oVCxqxmhzvRWPWV79P5SmXmJ6rWTyJe
f2/drjNjtY3P0BiMrRbcY7rISfnq/D0CZLmd2DwZQyFekmrPCOkA63Ws2MJDcJ2b
bFB7PnK6VrcyPmeefTn2po+oSaCnb89mdLFZCAe/Whn15YjoUXwzRXlarbUIFTNh
6Fb9AwRIAov7vwdZca2BBXwWen4AMKDJ/UT09x4F0dpPFG+nvauZV9Zd
-----END CERTIFICATE-----
Certificate:
    Data:
        Version: 3 (0x2)
        Serial Number: 7 (0x7)
        Signature Algorithm: sha256WithRSAEncryption
        Issuer: O=ICANN, OU=ICANN Certification Authority, CN=ICANN Root CA, C=US
        Validity
            Not Before: Jun 11 18:38:13 2014 GMT
            Not After : Jun 10 18:38:13 2019 GMT
        Subject: O=ICANN, CN=ICANN EMAIL CA
        Subject Public Key Info:
            Public Key Algorithm: rsaEncryption
            RSA Public Key: (2048 bit)
                Modulus (2048 bit):
                    00:d2:19:1e:22:69:33:f6:a4:d2:76:c5:80:11:75:
                    8e:d0:e8:6f:bf:89:f8:2a:6a:da:8a:85:28:40:ba:
                    c5:23:5f:47:ed:72:e2:8e:d3:5c:c8:8a:3a:99:a9:
                    57:2c:0a:2b:22:f3:54:7b:8b:f7:8c:21:a2:50:01:
                    4f:8b:af:34:df:72:fc:78:31:d0:1d:eb:bc:9b:e6:
                    fa:c1:84:d0:05:07:8a:74:53:a5:60:9e:eb:75:9e:
                    a8:5d:32:c8:02:32:e4:bf:cb:97:9b:7a:fa:2c:f6:
                    6a:1d:b8:57:ad:e3:03:22:93:d0:f4:4f:a8:b8:01:
                    db:82:33:98:b6:87:ed:3d:67:40:00:27:2e:d5:95:
                    d2:ad:36:46:14:c6:17:79:65:7f:65:f3:88:80:65:
                    7c:22:67:08:23:3c:cf:a5:10:38:72:30:97:92:6f:
                    20:4a:ba:24:4c:4a:c8:4a:a5:dc:2a:44:a1:29:78:
                    b4:9f:fe:84:ff:27:5b:3a:72:ea:31:c1:ad:06:22:
                    d6:44:a0:4a:57:32:9c:f2:46:47:d0:89:6e:20:23:
                    2c:ea:b0:83:7e:c1:f3:ea:da:dd:e3:63:59:97:21:
                    fa:1b:11:39:27:cf:82:8b:56:15:d4:36:92:0c:a5:
                    7e:80:e0:18:c9:50:08:42:0a:df:97:3c:9c:b8:0a:
                    4d:b1
                Exponent: 65537 (0x10001)
        X509v3 extensions:
            X509v3 Basic Constraints: critical
                CA:TRUE
            X509v3 Key Usage: critical
                Certificate Sign, CRL Sign
            X509v3 Authority Key Identifier: 
                keyid:BA:52:E9:49:83:24:86:52:2F:C7:99:CD:FC:8D:6B:69:08:4D:C0:50

            X509v3 Subject Key Identifier: 
                7B:3F:BA:CE:A1:B3:A6:13:2E:5A:82:84:D4:D2:EA:A5:24:F1:CD:B4
    Signature Algorithm: sha256WithRSAEncryption
        94:e7:2b:2b:25:6f:3b:26:dd:f9:aa:83:b8:14:2b:a8:1f:4d:
        09:6e:56:44:68:15:01:29:d2:92:7e:75:bb:7b:a9:40:98:4f:
        fe:f6:80:fe:69:02:0e:18:72:01:c0:74:73:e3:00:e2:87:a8:
        1f:79:5d:7a:b8:8a:aa:22:b0:4d:1f:56:85:98:40:97:72:4c:
        b1:4e:38:6e:ba:4c:12:af:2f:7c:ef:48:03:5f:13:f7:4d:d5:
        17:6f:5d:38:e9:7a:8f:f6:82:ee:4f:09:4c:85:a6:88:eb:7d:
        62:ba:13:34:dc:2d:6d:86:94:35:69:bc:9f:7d:c8:89:97:3a:
        a4:81:e5:2b:a3:6d:49:cb:b6:57:97:86:97:3f:3e:07:8a:3b:
        55:d4:9f:95:63:0c:5f:8a:95:84:fc:3c:37:f1:e5:a1:f1:e5:
        0c:d5:86:d8:3f:a6:79:4d:c5:a9:10:8e:d1:38:a3:05:36:eb:
        2c:37:fb:70:bb:98:67:25:6d:e9:d3:9c:de:b6:b7:32:7c:4c:
        98:be:4d:45:02:cb:93:de:ce:e7:64:a9:e8:5d:ef:d1:ed:ee:
        8f:c9:92:98:3a:46:75:ee:5a:84:82:25:56:ee:50:2f:63:62:
        70:5b:1b:7d:23:79:50:b5:b6:9c:5f:c4:ba:27:e1:9a:dc:71:
        74:81:26:f9
-----BEGIN CERTIFICATE-----
MIIDZDCCAkygAwIBAgIBBzANBgkqhkiG9w0BAQsFADBdMQ4wDAYDVQQKEwVJQ0FO
TjEmMCQGA1UECxMdSUNBTk4gQ2VydGlmaWNhdGlvbiBBdXRob3JpdHkxFjAUBgNV
BAMTDUlDQU5OIFJvb3QgQ0ExCzAJBgNVBAYTAlVTMB4XDTE0MDYxMTE4MzgxM1oX
DTE5MDYxMDE4MzgxM1owKTEOMAwGA1UEChMFSUNBTk4xFzAVBgNVBAMTDklDQU5O
IEVNQUlMIENBMIIBIjANBgkqhkiG9w0BAQEFAAOCAQ8AMIIBCgKCAQEA0hkeImkz
9qTSdsWAEXWO0Ohvv4n4KmraioUoQLrFI19H7XLijtNcyIo6malXLAorIvNUe4v3
jCGiUAFPi68033L8eDHQHeu8m+b6wYTQBQeKdFOlYJ7rdZ6oXTLIAjLkv8uXm3r6
LPZqHbhXreMDIpPQ9E+ouAHbgjOYtoftPWdAACcu1ZXSrTZGFMYXeWV/ZfOIgGV8
ImcIIzzPpRA4cjCXkm8gSrokTErISqXcKkShKXi0n/6E/ydbOnLqMcGtBiLWRKBK
VzKc8kZH0IluICMs6rCDfsHz6trd42NZlyH6GxE5J8+Ci1YV1DaSDKV+gOAYyVAI
QgrflzycuApNsQIDAQABo2MwYTAPBgNVHRMBAf8EBTADAQH/MA4GA1UdDwEB/wQE
AwIBBjAfBgNVHSMEGDAWgBS6UulJgySGUi/Hmc38jWtpCE3AUDAdBgNVHQ4EFgQU
ez+6zqGzphMuWoKE1NLqpSTxzbQwDQYJKoZIhvcNAQELBQADggEBAJTnKyslbzsm
3fmqg7gUK6gfTQluVkRoFQEp0pJ+dbt7qUCYT/72gP5pAg4YcgHAdHPjAOKHqB95
XXq4iqoisE0fVoWYQJdyTLFOOG66TBKvL3zvSANfE/dN1RdvXTjpeo/2gu5PCUyF
pojrfWK6EzTcLW2GlDVpvJ99yImXOqSB5SujbUnLtleXhpc/PgeKO1XUn5VjDF+K
lYT8PDfx5aHx5QzVhtg/pnlNxakQjtE4owU26yw3+3C7mGclbenTnN62tzJ8TJi+
TUUCy5Pezudkqehd79Ht7o/Jkpg6RnXuWoSCJVbuUC9jYnBbG30jeVC1tpxfxLon
4ZrccXSBJvk=
-----END CERTIFICATE-----
Certificate:
    Data:
        Version: 3 (0x2)
        Serial Number: 8 (0x8)
        Signature Algorithm: sha256WithRSAEncryption
        Issuer: O=ICANN, OU=ICANN Certification Authority, CN=ICANN Root CA, C=US
        Validity
            Not Before: Jun 11 18:40:32 2014 GMT
            Not After : Jun 10 18:40:32 2019 GMT
        Subject: O=ICANN, CN=ICANN SSL CA
        Subject Public Key Info:
            Public Key Algorithm: rsaEncryption
            RSA Public Key: (2048 bit)
                Modulus (2048 bit):
                    00:dd:c6:ab:bf:7c:66:9d:b3:2b:96:00:14:c7:60:
                    7a:8d:62:5b:26:4b:30:d7:b3:4c:82:69:c6:4d:4d:
                    73:f3:d4:91:21:5d:ab:35:f0:c8:04:0e:f4:a3:35:
                    e2:e1:18:a9:98:12:03:58:f8:9f:eb:77:54:5b:89:
                    81:26:c9:aa:c2:f4:c9:0c:82:57:2a:5e:05:e9:61:
                    17:cc:19:18:71:eb:35:83:c1:86:9d:ec:f1:6b:ca:
                    dd:a1:96:0b:95:d4:e1:0f:9e:24:6f:dc:3c:d0:28:
                    9e:f2:53:47:2b:a1:ad:32:03:c8:3f:0d:80:80:7d:
                    f0:02:d2:6e:5a:2c:44:21:9b:09:50:15:3f:a1:3d:
                    d3:c9:c8:24:e7:ea:4e:92:2f:94:90:2e:de:e7:68:
                    f6:c6:b3:90:1f:bc:c9:7b:a2:65:d7:11:e9:8b:f0:
                    3a:5a:b7:17:07:df:69:e3:6e:b9:54:6a:8e:3a:aa:
                    94:7f:2c:0a:a1:ad:ba:b7:d9:60:62:27:a7:71:40:
                    3b:8e:b0:84:7b:b8:c8:67:ef:66:ba:3d:ac:c3:85:
                    e5:86:bb:a7:9c:fd:b6:e1:c0:10:53:3d:d4:7e:1b:
                    09:e6:9f:22:5c:a7:27:09:7e:27:12:33:fa:df:9b:
                    20:2f:14:f7:17:c0:e4:1e:07:91:1f:f9:9a:cd:a8:
                    e2:c5
                Exponent: 65537 (0x10001)
        X509v3 extensions:
            X509v3 Basic Constraints: critical
                CA:TRUE
            X509v3 Key Usage: critical
                Certificate Sign, CRL Sign
            X509v3 Authority Key Identifier: 
                keyid:BA:52:E9:49:83:24:86:52:2F:C7:99:CD:FC:8D:6B:69:08:4D:C0:50

            X509v3 Subject Key Identifier: 
                6E:77:A8:40:10:4A:D8:9C:0C:F2:B7:5A:3A:A5:2F:79:4A:61:14:D8
    Signature Algorithm: sha256WithRSAEncryption
        0f:7d:cd:f4:fc:33:b2:b9:47:68:a8:c1:1e:52:73:6f:cc:72:
        1f:53:59:0a:c6:ba:91:58:23:4c:b2:a3:97:36:9a:0a:9a:9a:
        03:43:ee:7b:b1:61:f4:59:ab:e3:ab:9f:1f:93:8f:52:36:b5:
        6a:f7:f8:92:f2:ee:cb:bc:31:9a:1a:70:01:f7:4b:c4:65:9f:
        25:8b:15:77:62:2c:f1:63:21:c2:18:04:77:35:4c:64:fc:20:
        1a:49:24:05:c3:fc:44:1f:ff:26:ea:42:97:fe:77:ca:cd:58:
        40:d3:fa:ce:2e:35:47:d5:33:45:11:76:81:ec:37:b6:fe:15:
        c7:74:f9:49:ef:4e:8a:da:70:ec:9c:0b:38:79:05:8c:5b:66:
        3e:e5:5f:32:a9:55:5e:ca:b6:00:fe:12:17:cb:39:7a:91:44:
        77:42:25:f3:13:56:12:e3:7b:82:62:24:8c:dd:24:bd:6b:74:
        8c:47:9d:90:ad:6c:31:93:12:54:fa:8d:95:b0:9a:eb:b8:1f:
        99:dd:7e:65:ed:a4:69:b8:6b:59:a0:78:8b:73:f5:f5:ea:f8:
        9c:9a:07:8a:eb:84:d5:43:65:6b:a2:1e:71:6c:78:aa:b3:4a:
        05:c5:46:3d:44:66:87:d3:91:27:25:9f:48:50:51:32:cb:5e:
        55:1c:1a:7b
-----BEGIN CERTIFICATE-----
MIIDYjCCAkqgAwIBAgIBCDANBgkqhkiG9w0BAQsFADBdMQ4wDAYDVQQKEwVJQ0FO
TjEmMCQGA1UECxMdSUNBTk4gQ2VydGlmaWNhdGlvbiBBdXRob3JpdHkxFjAUBgNV
BAMTDUlDQU5OIFJvb3QgQ0ExCzAJBgNVBAYTAlVTMB4XDTE0MDYxMTE4NDAzMloX
DTE5MDYxMDE4NDAzMlowJzEOMAwGA1UEChMFSUNBTk4xFTATBgNVBAMTDElDQU5O
IFNTTCBDQTCCASIwDQYJKoZIhvcNAQEBBQADggEPADCCAQoCggEBAN3Gq798Zp2z
K5YAFMdgeo1iWyZLMNezTIJpxk1Nc/PUkSFdqzXwyAQO9KM14uEYqZgSA1j4n+t3
VFuJgSbJqsL0yQyCVypeBelhF8wZGHHrNYPBhp3s8WvK3aGWC5XU4Q+eJG/cPNAo
nvJTRyuhrTIDyD8NgIB98ALSblosRCGbCVAVP6E908nIJOfqTpIvlJAu3udo9saz
kB+8yXuiZdcR6YvwOlq3FwffaeNuuVRqjjqqlH8sCqGturfZYGInp3FAO46whHu4
yGfvZro9rMOF5Ya7p5z9tuHAEFM91H4bCeafIlynJwl+JxIz+t+bIC8U9xfA5B4H
kR/5ms2o4sUCAwEAAaNjMGEwDwYDVR0TAQH/BAUwAwEB/zAOBgNVHQ8BAf8EBAMC
AQYwHwYDVR0jBBgwFoAUulLpSYMkhlIvx5nN/I1raQhNwFAwHQYDVR0OBBYEFG53
qEAQSticDPK3WjqlL3lKYRTYMA0GCSqGSIb3DQEBCwUAA4IBAQAPfc30/DOyuUdo
qMEeUnNvzHIfU1kKxrqRWCNMsqOXNpoKmpoDQ+57sWH0Wavjq58fk49SNrVq9/iS
8u7LvDGaGnAB90vEZZ8lixV3YizxYyHCGAR3NUxk/CAaSSQFw/xEH/8m6kKX/nfK
zVhA0/rOLjVH1TNFEXaB7De2/hXHdPlJ706K2nDsnAs4eQWMW2Y+5V8yqVVeyrYA
/hIXyzl6kUR3QiXzE1YS43uCYiSM3SS9a3SMR52QrWwxkxJU+o2VsJrruB+Z3X5l
7aRpuGtZoHiLc/X16vicmgeK64TVQ2Vroh5xbHiqs0oFxUY9RGaH05EnJZ9IUFEy
y15VHBp7
-----END CERTIFICATE-----
